; ModuleID = '54/1082.c'
source_filename = "54/1082.c"
target datalayout = "e-m:e-p270:32:32-p271:32:32-p272:64:64-i64:64-f80:128-n8:16:32:64-S128"
target triple = "x86_64-pc-linux-gnu"

@.str = private unnamed_addr constant [5 x i8] c"%d%d\00", align 1
@.str.1 = private unnamed_addr constant [3 x i8] c"%d\00", align 1

; Function Attrs: noinline nounwind uwtable
define dso_local i32 @divide(i32 %0, i32 %1, i32 %2, i32 %3) #0 {
  %5 = alloca i32, align 4
  %6 = alloca i32, align 4
  %7 = alloca i32, align 4
  %8 = alloca i32, align 4
  %9 = alloca i32, align 4
  store i32 %0, i32* %6, align 4
  store i32 %1, i32* %7, align 4
  store i32 %2, i32* %8, align 4
  store i32 %3, i32* %9, align 4
  %10 = load i32, i32* %6, align 4
  %11 = load i32, i32* %8, align 4
  %12 = sub nsw i32 %10, %11
  %13 = load i32, i32* %7, align 4
  %14 = srem i32 %12, %13
  %15 = icmp ne i32 %14, 0
  br i1 %15, label %16, label %17

16:                                               ; preds = %4
  store i32 0, i32* %5, align 4
  br label %38

17:                                               ; preds = %4
  %18 = load i32, i32* %9, align 4
  %19 = icmp eq i32 %18, 1
  br i1 %19, label %20, label %22

20:                                               ; preds = %17
  %21 = load i32, i32* %6, align 4
  store i32 %21, i32* %5, align 4
  br label %38

22:                                               ; preds = %17
  %23 = load i32, i32* %6, align 4
  %24 = load i32, i32* %8, align 4
  %25 = sub nsw i32 %23, %24
  %26 = load i32, i32* %7, align 4
  %27 = sdiv i32 %25, %26
  %28 = load i32, i32* %7, align 4
  %29 = sub nsw i32 %28, 1
  %30 = mul nsw i32 %27, %29
  store i32 %30, i32* %6, align 4
  %31 = load i32, i32* %9, align 4
  %32 = add nsw i32 %31, -1
  store i32 %32, i32* %9, align 4
  %33 = load i32, i32* %6, align 4
  %34 = load i32, i32* %7, align 4
  %35 = load i32, i32* %8, align 4
  %36 = load i32, i32* %9, align 4
  %37 = call i32 @divide(i32 %33, i32 %34, i32 %35, i32 %36)
  store i32 %37, i32* %5, align 4
  br label %38

38:                                               ; preds = %22, %20, %16
  %39 = load i32, i32* %5, align 4
  ret i32 %39
}

; Function Attrs: noinline nounwind uwtable
define dso_local i32 @main() #0 {
  %1 = alloca i32, align 4
  %2 = alloca i32, align 4
  %3 = alloca i32, align 4
  %4 = alloca i32, align 4
  %5 = alloca i32, align 4
  store i32 0, i32* %1, align 4
  %6 = call i32 (i8*, ...) @__isoc99_scanf(i8* getelementptr inbounds ([5 x i8], [5 x i8]* @.str, i64 0, i64 0), i32* %3, i32* %4)
  %7 = load i32, i32* %4, align 4
  store i32 %7, i32* %2, align 4
  br label %8

8:                                                ; preds = %23, %0
  %9 = load i32, i32* %2, align 4
  %10 = load i32, i32* %3, align 4
  %11 = load i32, i32* %4, align 4
  %12 = load i32, i32* %3, align 4
  %13 = call i32 @divide(i32 %9, i32 %10, i32 %11, i32 %12)
  store i32 %13, i32* %5, align 4
  %14 = load i32, i32* %5, align 4
  %15 = load i32, i32* %4, align 4
  %16 = sub nsw i32 %14, %15
  %17 = load i32, i32* %3, align 4
  %18 = icmp sge i32 %16, %17
  br i1 %18, label %19, label %22

19:                                               ; preds = %8
  %20 = load i32, i32* %2, align 4
  %21 = call i32 (i8*, ...) @printf(i8* getelementptr inbounds ([3 x i8], [3 x i8]* @.str.1, i64 0, i64 0), i32 %20)
  br label %26

22:                                               ; preds = %8
  br label %23

23:                                               ; preds = %22
  %24 = load i32, i32* %2, align 4
  %25 = add nsw i32 %24, 1
  store i32 %25, i32* %2, align 4
  br label %8

26:                                               ; preds = %19
  ret i32 0
}

declare dso_local i32 @__isoc99_scanf(i8*, ...) #1

declare dso_local i32 @printf(i8*, ...) #1


!llvm.module.flags = !{!0}
!llvm.ident = !{!1}

!0 = !{i32 1, !"wchar_size", i32 4}
!1 = !{!"clang version 10.0.0-4ubuntu1 "}
